target datalayout = "e-m:e-p270:32:32-p271:32:32-p272:64:64-i64:64-i128:128-f80:128-n8:16:32:64-S128"
target triple = "x86_64-pc-linux-gnu"

%struct.SDL_AtomicInt = type { i32 }
%struct.SDL_LogicalAudioDevice = type { i32, ptr, %struct.SDL_AtomicInt, float, ptr, i8, i8, ptr, ptr, ptr, ptr, ptr, ptr, ptr }

; Function Attrs: nounwind uwtable
define hidden float @SDL_GetAudioDeviceGain_REAL(i32 noundef %0) #0 {
  %2 = alloca i32, align 4
  %3 = alloca ptr, align 8
  %4 = alloca ptr, align 8
  %5 = alloca float, align 4
  store i32 %0, ptr %2, align 4
  call void @llvm.lifetime.start.p0(i64 8, ptr %3) #6
  store ptr null, ptr %3, align 8
  call void @llvm.lifetime.start.p0(i64 8, ptr %4) #6
  %6 = load i32, ptr %2, align 4
  %7 = call ptr @ObtainLogicalAudioDevice(i32 noundef %6, ptr noundef %3)
  store ptr %7, ptr %4, align 8
  call void @llvm.lifetime.start.p0(i64 4, ptr %5) #6
  %8 = load ptr, ptr %4, align 8
  %9 = icmp ne ptr %8, null
  br i1 %9, label %10, label %14

10:                                               ; preds = %1
  %11 = load ptr, ptr %4, align 8
  %12 = getelementptr inbounds nuw %struct.SDL_LogicalAudioDevice, ptr %11, i32 0, i32 3
  %13 = load float, ptr %12, align 4
  br label %15

14:                                               ; preds = %1
  br label %15

15:                                               ; preds = %14, %10
  %16 = phi float [ %13, %10 ], [ -1.000000e+00, %14 ]
  store float %16, ptr %5, align 4
  %17 = load ptr, ptr %3, align 8
  call void @ReleaseAudioDevice(ptr noundef %17)
  %18 = load float, ptr %5, align 4
  call void @llvm.lifetime.end.p0(i64 4, ptr %5) #6
  call void @llvm.lifetime.end.p0(i64 8, ptr %4) #6
  call void @llvm.lifetime.end.p0(i64 8, ptr %3) #6
  ret float %18
}