; Function Attrs: nounwind uwtable
define hidden float @SDL_GetAudioDeviceGain_REAL(i32 noundef %0) local_unnamed_addr #0 {
  %2 = alloca ptr, align 8
  call void @llvm.lifetime.start.p0(i64 8, ptr nonnull %2) #14
  store ptr null, ptr %2, align 8
  %3 = call fastcc ptr @ObtainLogicalAudioDevice(i32 noundef %0, ptr noundef %2)
  %.not = icmp eq ptr %3, null
  br i1 %.not, label %7, label %4

4:                                                ; preds = %1
  %5 = getelementptr inbounds nuw i8, ptr %3, i64 20
  %6 = load float, ptr %5, align 4
  br label %7

7:                                                ; preds = %1, %4
  %8 = phi float [ %6, %4 ], [ -1.000000e+00, %1 ]
  %9 = load ptr, ptr %2, align 8
  tail call fastcc void @ReleaseAudioDevice(ptr noundef %9)
  call void @llvm.lifetime.end.p0(i64 8, ptr nonnull %2) #14
  ret float %8
}